target datalayout = "e-m:e-p270:32:32-p271:32:32-p272:64:64-i64:64-i128:128-f80:128-n8:16:32:64-S128"
target triple = "x86_64-pc-linux-gnu"

%class.BigInteger = type { i32, %class.BigUnsigned }
%class.BigUnsigned = type { %class.NumberlikeArray }
%class.NumberlikeArray = type { i32, i32, ptr }

; Function Attrs: mustprogress nounwind uwtable
define linkonce_odr noundef zeroext i1 @_ZNK15NumberlikeArrayImEeqERKS0_(ptr noundef nonnull align 8 dereferenceable(16) %0, ptr noundef nonnull align 8 dereferenceable(16) %1) #1 comdat align 2 {
  %3 = alloca i1, align 1
  %4 = alloca ptr, align 8
  %5 = alloca ptr, align 8
  %6 = alloca i32, align 4
  %7 = alloca i32, align 4
  store ptr %0, ptr %4, align 8, !tbaa !25
  store ptr %1, ptr %5, align 8, !tbaa !25
  %8 = load ptr, ptr %4, align 8
  %9 = getelementptr inbounds nuw %class.NumberlikeArray, ptr %8, i32 0, i32 1
  %10 = load i32, ptr %9, align 4, !tbaa !32
  %11 = load ptr, ptr %5, align 8, !tbaa !25
  %12 = getelementptr inbounds nuw %class.NumberlikeArray, ptr %11, i32 0, i32 1
  %13 = load i32, ptr %12, align 4, !tbaa !32
  %14 = icmp ne i32 %10, %13
  br i1 %14, label %15, label %16

15:                                               ; preds = %2
  store i1 false, ptr %3, align 1
  br label %44

16:                                               ; preds = %2
  call void @llvm.lifetime.start.p0(i64 4, ptr %6) #9
  store i32 0, ptr %6, align 4, !tbaa !21
  br label %17

17:                                               ; preds = %39, %16
  %18 = load i32, ptr %6, align 4, !tbaa !21
  %19 = getelementptr inbounds nuw %class.NumberlikeArray, ptr %8, i32 0, i32 1
  %20 = load i32, ptr %19, align 4, !tbaa !32
  %21 = icmp ult i32 %18, %20
  br i1 %21, label %22, label %42

22:                                               ; preds = %17
  %23 = getelementptr inbounds nuw %class.NumberlikeArray, ptr %8, i32 0, i32 2
  %24 = load ptr, ptr %23, align 8, !tbaa !27
  %25 = load i32, ptr %6, align 4, !tbaa !21
  %26 = zext i32 %25 to i64
  %27 = getelementptr inbounds nuw i64, ptr %24, i64 %26
  %28 = load i64, ptr %27, align 8, !tbaa !28
  %29 = load ptr, ptr %5, align 8, !tbaa !25
  %30 = getelementptr inbounds nuw %class.NumberlikeArray, ptr %29, i32 0, i32 2
  %31 = load ptr, ptr %30, align 8, !tbaa !27
  %32 = load i32, ptr %6, align 4, !tbaa !21
  %33 = zext i32 %32 to i64
  %34 = getelementptr inbounds nuw i64, ptr %31, i64 %33
  %35 = load i64, ptr %34, align 8, !tbaa !28
  %36 = icmp ne i64 %28, %35
  br i1 %36, label %37, label %38

37:                                               ; preds = %22
  store i1 false, ptr %3, align 1
  store i32 1, ptr %7, align 4
  br label %43

38:                                               ; preds = %22
  br label %39

39:                                               ; preds = %38
  %40 = load i32, ptr %6, align 4, !tbaa !21
  %41 = add i32 %40, 1
  store i32 %41, ptr %6, align 4, !tbaa !21
  br label %17, !llvm.loop !39

42:                                               ; preds = %17
  store i1 true, ptr %3, align 1
  store i32 1, ptr %7, align 4
  br label %43

43:                                               ; preds = %42, %37
  call void @llvm.lifetime.end.p0(i64 4, ptr %6) #9
  br label %44

44:                                               ; preds = %43, %15
  %45 = load i1, ptr %3, align 1
  ret i1 %45
}

; Function Attrs: mustprogress nounwind uwtable
define linkonce_odr void @_ZN15NumberlikeArrayImED2Ev(ptr noundef nonnull align 8 dereferenceable(16) %0) unnamed_addr #1 comdat align 2 {
  %2 = alloca ptr, align 8
  store ptr %0, ptr %2, align 8, !tbaa !25
  %3 = load ptr, ptr %2, align 8
  %4 = getelementptr inbounds nuw %class.NumberlikeArray, ptr %3, i32 0, i32 2
  %5 = load ptr, ptr %4, align 8, !tbaa !27
  %6 = icmp eq ptr %5, null
  br i1 %6, label %8, label %7

7:                                                ; preds = %1
  call void @_ZdaPv(ptr noundef %5) #11
  br label %8

8:                                                ; preds = %7, %1
  ret void
}

; Function Attrs: mustprogress uwtable
define linkonce_odr noundef zeroext i1 @_ZNK11BigUnsignedeqERKS_(ptr noundef nonnull align 8 dereferenceable(16) %0, ptr noundef nonnull align 8 dereferenceable(16) %1) #0 comdat align 2 {
  %3 = alloca ptr, align 8
  %4 = alloca ptr, align 8
  store ptr %0, ptr %3, align 8, !tbaa !18
  store ptr %1, ptr %4, align 8, !tbaa !18
  %5 = load ptr, ptr %3, align 8
  %6 = load ptr, ptr %4, align 8, !tbaa !18
  %7 = call noundef zeroext i1 @_ZNK15NumberlikeArrayImEeqERKS0_(ptr noundef nonnull align 8 dereferenceable(16) %5, ptr noundef nonnull align 8 dereferenceable(16) %6)
  ret i1 %7
}

; Function Attrs: mustprogress uwtable
define void @_ZN10BigIntegerppEv(ptr noundef nonnull align 8 dereferenceable(24) %0) #0 align 2 personality ptr @__gxx_personality_v0 {
  %2 = alloca ptr, align 8
  %3 = alloca %class.BigUnsigned, align 8
  %4 = alloca ptr, align 8
  %5 = alloca i32, align 4
  store ptr %0, ptr %2, align 8, !tbaa !6
  %6 = load ptr, ptr %2, align 8
  %7 = getelementptr inbounds nuw %class.BigInteger, ptr %6, i32 0, i32 0
  %8 = load i32, ptr %7, align 8, !tbaa !11
  %9 = icmp eq i32 %8, -1
  br i1 %9, label %10, label %22

10:                                               ; preds = %1
  %11 = getelementptr inbounds nuw %class.BigInteger, ptr %6, i32 0, i32 1
  call void @_ZN11BigUnsignedmmEi(ptr noundef nonnull align 8 dereferenceable(16) %11, i32 noundef 0)
  %12 = getelementptr inbounds nuw %class.BigInteger, ptr %6, i32 0, i32 1
  call void @llvm.lifetime.start.p0(i64 16, ptr %3) #9
  call void @_ZN11BigUnsignedC1Ei(ptr noundef nonnull align 8 dereferenceable(16) %3, i32 noundef 0)
  %13 = invoke noundef zeroext i1 @_ZNK11BigUnsignedeqERKS_(ptr noundef nonnull align 8 dereferenceable(16) %12, ptr noundef nonnull align 8 dereferenceable(16) %3)
          to label %14 unwind label %17

14:                                               ; preds = %10
  call void @_ZN15NumberlikeArrayImED2Ev(ptr noundef nonnull align 8 dereferenceable(16) %3) #9
  call void @llvm.lifetime.end.p0(i64 16, ptr %3) #9
  br i1 %13, label %15, label %21

15:                                               ; preds = %14
  %16 = getelementptr inbounds nuw %class.BigInteger, ptr %6, i32 0, i32 0
  store i32 0, ptr %16, align 8, !tbaa !11
  br label %21

17:                                               ; preds = %10
  %18 = landingpad { ptr, i32 }
          cleanup
  %19 = extractvalue { ptr, i32 } %18, 0
  store ptr %19, ptr %4, align 8
  %20 = extractvalue { ptr, i32 } %18, 1
  store i32 %20, ptr %5, align 4
  call void @_ZN15NumberlikeArrayImED2Ev(ptr noundef nonnull align 8 dereferenceable(16) %3) #9
  call void @llvm.lifetime.end.p0(i64 16, ptr %3) #9
  br label %26

21:                                               ; preds = %15, %14
  br label %25

22:                                               ; preds = %1
  %23 = getelementptr inbounds nuw %class.BigInteger, ptr %6, i32 0, i32 1
  call void @_ZN11BigUnsignedppEi(ptr noundef nonnull align 8 dereferenceable(16) %23, i32 noundef 0)
  %24 = getelementptr inbounds nuw %class.BigInteger, ptr %6, i32 0, i32 0
  store i32 1, ptr %24, align 8, !tbaa !11
  br label %25

25:                                               ; preds = %22, %21
  ret void

26:                                               ; preds = %17
  %27 = load ptr, ptr %4, align 8
  %28 = load i32, ptr %5, align 4
  %29 = insertvalue { ptr, i32 } poison, ptr %27, 0
  %30 = insertvalue { ptr, i32 } %29, i32 %28, 1
  resume { ptr, i32 } %30
}

; Function Attrs: mustprogress uwtable
define void @_ZN10BigIntegerppEi(ptr noundef nonnull align 8 dereferenceable(24) %0, i32 noundef %1) #0 align 2 {
  %3 = alloca ptr, align 8
  %4 = alloca i32, align 4
  store ptr %0, ptr %3, align 8, !tbaa !6
  store i32 %1, ptr %4, align 4, !tbaa !21
  %5 = load ptr, ptr %3, align 8
  call void @_ZN10BigIntegerppEv(ptr noundef nonnull align 8 dereferenceable(24) %5)
  ret void
}